; Function Attrs: mustprogress uwtable
define hidden void @_ZNK5osgeo4proj5datum13PrimeMeridian19_exportToPROJStringEPNS0_2io19PROJStringFormatterE(ptr nocapture noundef nonnull readonly align 8 dereferenceable(64) %0, ptr noundef %1) unnamed_addr #0 align 2 personality ptr @__gxx_personality_v0 {
  %3 = alloca %"class.std::__cxx11::basic_string", align 8
  %4 = getelementptr inbounds i8, ptr %0, i64 56
  %5 = load ptr, ptr %4, align 8
  %6 = tail call noundef double @_ZNK5osgeo4proj6common7Measure10getSIValueEv(ptr noundef nonnull align 8 dereferenceable(24) %5) #25
  %7 = fcmp une double %6, 0.000000e+00
  br i1 %7, label %8, label %17

8:                                                ; preds = %2
  call void @_ZN5osgeo4proj5datum13PrimeMeridian26getPROJStringWellKnownNameB5cxx11ERKNS0_6common5AngleE(ptr dead_on_unwind nonnull writable sret(%"class.std::__cxx11::basic_string") align 8 %3, ptr noundef nonnull align 8 dereferenceable(24) %5)
  %9 = call noundef zeroext i1 @_ZNKSt7__cxx1112basic_stringIcSt11char_traitsIcESaIcEE5emptyEv(ptr noundef nonnull align 8 dereferenceable(32) %3) #26
  br i1 %9, label %13, label %10

10:                                               ; preds = %8
  invoke void @_ZN5osgeo4proj2io19PROJStringFormatter8addParamEPKcRKNSt7__cxx1112basic_stringIcSt11char_traitsIcESaIcEEE(ptr noundef nonnull align 8 dereferenceable(8) %1, ptr noundef nonnull @.str.14, ptr noundef nonnull align 8 dereferenceable(32) %3)
          to label %16 unwind label %11

11:                                               ; preds = %13, %10
  %12 = landingpad { ptr, i32 }
          cleanup
  call void @_ZNSt7__cxx1112basic_stringIcSt11char_traitsIcESaIcEED1Ev(ptr noundef nonnull align 8 dereferenceable(32) %3) #26
  resume { ptr, i32 } %12

13:                                               ; preds = %8
  %14 = load ptr, ptr %4, align 8
  %15 = call noundef double @_ZNK5osgeo4proj6common7Measure13convertToUnitERKNS1_13UnitOfMeasureE(ptr noundef nonnull align 8 dereferenceable(24) %14, ptr noundef nonnull align 8 dereferenceable(24) @_ZN5osgeo4proj6common13UnitOfMeasure6DEGREEE) #25
  invoke void @_ZN5osgeo4proj2io19PROJStringFormatter8addParamEPKcd(ptr noundef nonnull align 8 dereferenceable(8) %1, ptr noundef nonnull @.str.14, double noundef %15)
          to label %16 unwind label %11

16:                                               ; preds = %13, %10
  call void @_ZNSt7__cxx1112basic_stringIcSt11char_traitsIcESaIcEED1Ev(ptr noundef nonnull align 8 dereferenceable(32) %3) #26
  br label %17

17:                                               ; preds = %16, %2
  ret void
}